(dp1
S'output'
p2
S''
sS'layer'
p3
S'Framework'
p4
sS'code'
p5
S''
sS'snapshot'
p6
(dp7
S'exception'
p8
(dp9
S'__getslice__'
p10
S"<method-wrapper '__getslice__' of exceptions.NameError object>"
p11
sS'__str__'
p12
S"<method-wrapper '__str__' of exceptions.NameError object>"
p13
sS'__reduce__'
p14
S'<built-in method __reduce__ of exceptions.NameError object>'
p15
sS'__dict__'
p16
S'{}'
p17
sS'message'
p18
S'"name \'my_layout\' is not defined"'
p19
sS'__sizeof__'
p20
S'<built-in method __sizeof__ of exceptions.NameError object>'
p21
sS'__init__'
p22
S"<method-wrapper '__init__' of exceptions.NameError object>"
p23
sS'__setattr__'
p24
S"<method-wrapper '__setattr__' of exceptions.NameError object>"
p25
sS'__reduce_ex__'
p26
S'<built-in method __reduce_ex__ of exceptions.NameError object>'
p27
sS'__new__'
p28
S'<built-in method __new__ of type object>'
p29
sS'__format__'
p30
S'<built-in method __format__ of exceptions.NameError object>'
p31
sS'__class__'
p32
S"<type 'exceptions.NameError'>"
p33
sS'__doc__'
p34
S"'Name not found globally.'"
p35
sS'__getitem__'
p36
S"<method-wrapper '__getitem__' of exceptions.NameError object>"
p37
sS'__setstate__'
p38
S'<built-in method __setstate__ of exceptions.NameError object>'
p39
sS'__getattribute__'
p40
S"<method-wrapper '__getattribute__' of exceptions.NameError object>"
p41
sS'args'
p42
S'("name \'my_layout\' is not defined",)'
p43
sS'__subclasshook__'
p44
S'<built-in method __subclasshook__ of type object>'
p45
sS'__unicode__'
p46
S'<built-in method __unicode__ of exceptions.NameError object>'
p47
sS'__delattr__'
p48
S"<method-wrapper '__delattr__' of exceptions.NameError object>"
p49
sS'__repr__'
p50
S"<method-wrapper '__repr__' of exceptions.NameError object>"
p51
sS'__hash__'
p52
S"<method-wrapper '__hash__' of exceptions.NameError object>"
p53
ssS'evalue'
p54
S"name 'my_layout' is not defined"
p55
sS'request'
p56
cgluon.html
XML_unpickle
p57
(S's\x17e\x00\x00<div><table><tr><td style="font-weight:bold;vertical-align:top;">ajax</td><td style="vertical-align:top;">:</td><td><div>False</div></td></tr><tr><td style="font-weight:bold;vertical-align:top;">application</td><td style="vertical-align:top;">:</td><td><div>Gym_membership</div></td></tr><tr><td style="font-weight:bold;vertical-align:top;">args</td><td style="vertical-align:top;">:</td><td><div><table></table></div></td></tr><tr><td style="font-weight:bold;vertical-align:top;">cid</td><td style="vertical-align:top;">:</td><td><div>None</div></td></tr><tr><td style="font-weight:bold;vertical-align:top;">client</td><td style="vertical-align:top;">:</td><td><div>127.0.0.1</div></td></tr><tr><td style="font-weight:bold;vertical-align:top;">controller</td><td style="vertical-align:top;">:</td><td><div>default</div></td></tr><tr><td style="font-weight:bold;vertical-align:top;">cookies</td><td style="vertical-align:top;">:</td><td><div><table><tr><td style="font-weight:bold;vertical-align:top;">session_id_admin</td><td style="vertical-align:top;">:</td><td><div>127.0.0.1-d045546d-f68a-4278-8ea9-6e5b3410df34<table><tr><td style="font-weight:bold;vertical-align:top;">comment</td><td style="vertical-align:top;">:</td><td><div></div></td></tr><tr><td style="font-weight:bold;vertical-align:top;">domain</td><td style="vertical-align:top;">:</td><td><div></div></td></tr><tr><td style="font-weight:bold;vertical-align:top;">expires</td><td style="vertical-align:top;">:</td><td><div></div></td></tr><tr><td style="font-weight:bold;vertical-align:top;">httponly</td><td style="vertical-align:top;">:</td><td><div></div></td></tr><tr><td style="font-weight:bold;vertical-align:top;">max-age</td><td style="vertical-align:top;">:</td><td><div></div></td></tr><tr><td style="font-weight:bold;vertical-align:top;">path</td><td style="vertical-align:top;">:</td><td><div></div></td></tr><tr><td style="font-weight:bold;vertical-align:top;">secure</td><td style="vertical-align:top;">:</td><td><div></div></td></tr><tr><td style="font-weight:bold;vertical-align:top;">version</td><td style="vertical-align:top;">:</td><td><div></div></td></tr></table></div></td></tr><tr><td style="font-weight:bold;vertical-align:top;">session_id_codetrain</td><td style="vertical-align:top;">:</td><td><div>127.0.0.1-984b9676-5330-4342-90cd-a4a7ee63e0f6<table><tr><td style="font-weight:bold;vertical-align:top;">comment</td><td style="vertical-align:top;">:</td><td><div></div></td></tr><tr><td style="font-weight:bold;vertical-align:top;">domain</td><td style="vertical-align:top;">:</td><td><div></div></td></tr><tr><td style="font-weight:bold;vertical-align:top;">expires</td><td style="vertical-align:top;">:</td><td><div></div></td></tr><tr><td style="font-weight:bold;vertical-align:top;">httponly</td><td style="vertical-align:top;">:</td><td><div></div></td></tr><tr><td style="font-weight:bold;vertical-align:top;">max-age</td><td style="vertical-align:top;">:</td><td><div></div></td></tr><tr><td style="font-weight:bold;vertical-align:top;">path</td><td style="vertical-align:top;">:</td><td><div></div></td></tr><tr><td style="font-weight:bold;vertical-align:top;">secure</td><td style="vertical-align:top;">:</td><td><div></div></td></tr><tr><td style="font-weight:bold;vertical-align:top;">version</td><td style="vertical-align:top;">:</td><td><div></div></td></tr></table></div></td></tr><tr><td style="font-weight:bold;vertical-align:top;">session_id_gym_membership</td><td style="vertical-align:top;">:</td><td><div>127.0.0.1-1b3e70b7-6afb-412e-b3cc-1af1122ee688<table><tr><td style="font-weight:bold;vertical-align:top;">comment</td><td style="vertical-align:top;">:</td><td><div></div></td></tr><tr><td style="font-weight:bold;vertical-align:top;">domain</td><td style="vertical-align:top;">:</td><td><div></div></td></tr><tr><td style="font-weight:bold;vertical-align:top;">expires</td><td style="vertical-align:top;">:</td><td><div></div></td></tr><tr><td style="font-weight:bold;vertical-align:top;">httponly</td><td style="vertical-align:top;">:</td><td><div></div></td></tr><tr><td style="font-weight:bold;vertical-align:top;">max-age</td><td style="vertical-align:top;">:</td><td><div></div></td></tr><tr><td style="font-weight:bold;vertical-align:top;">path</td><td style="vertical-align:top;">:</td><td><div></div></td></tr><tr><td style="font-weight:bold;vertical-align:top;">secure</td><td style="vertical-align:top;">:</td><td><div></div></td></tr><tr><td style="font-weight:bold;vertical-align:top;">version</td><td style="vertical-align:top;">:</td><td><div></div></td></tr></table></div></td></tr><tr><td style="font-weight:bold;vertical-align:top;">session_id_welcome</td><td style="vertical-align:top;">:</td><td><div>127.0.0.1-266be42a-75f3-4dbd-aa2f-7ea6fc506496<table><tr><td style="font-weight:bold;vertical-align:top;">comment</td><td style="vertical-align:top;">:</td><td><div></div></td></tr><tr><td style="font-weight:bold;vertical-align:top;">domain</td><td style="vertical-align:top;">:</td><td><div></div></td></tr><tr><td style="font-weight:bold;vertical-align:top;">expires</td><td style="vertical-align:top;">:</td><td><div></div></td></tr><tr><td style="font-weight:bold;vertical-align:top;">httponly</td><td style="vertical-align:top;">:</td><td><div></div></td></tr><tr><td style="font-weight:bold;vertical-align:top;">max-age</td><td style="vertical-align:top;">:</td><td><div></div></td></tr><tr><td style="font-weight:bold;vertical-align:top;">path</td><td style="vertical-align:top;">:</td><td><div></div></td></tr><tr><td style="font-weight:bold;vertical-align:top;">secure</td><td style="vertical-align:top;">:</td><td><div></div></td></tr><tr><td style="font-weight:bold;vertical-align:top;">version</td><td style="vertical-align:top;">:</td><td><div></div></td></tr></table></div></td></tr></table></div></td></tr><tr><td style="font-weight:bold;vertical-align:top;">env</td><td style="vertical-align:top;">:</td><td><div><table><tr><td style="font-weight:bold;vertical-align:top;">HTTP_ACCEPT</td><td style="vertical-align:top;">:</td><td><div>text/html,application/xhtml+xml,application/xml;q=0.9,image/webp,image/apng,*/*;q=0.8</div></td></tr><tr><td style="font-weight:bold;vertical-align:top;">HTTP_ACCEPT_ENCODING</td><td style="vertical-align:top;">:</td><td><div>gzip, deflate, br</div></td></tr><tr><td style="font-weight:bold;vertical-align:top;">HTTP_ACCEPT_LANGUAGE</td><td style="vertical-align:top;">:</td><td><div>en-US,en;q=0.9</div></td></tr><tr><td style="font-weight:bold;vertical-align:top;">HTTP_CACHE_CONTROL</td><td style="vertical-align:top;">:</td><td><div>max-age=0</div></td></tr><tr><td style="font-weight:bold;vertical-align:top;">HTTP_CONNECTION</td><td style="vertical-align:top;">:</td><td><div>keep-alive</div></td></tr><tr><td style="font-weight:bold;vertical-align:top;">HTTP_COOKIE</td><td style="vertical-align:top;">:</td><td><div>session_id_admin=127.0.0.1-d045546d-f68a-4278-8ea9-6e5b3410df34; session_id_codetrain=127.0.0.1-984b9676-5330-4342-90cd-a4a7ee63e0f6; session_id_gym_membership=127.0.0.1-1b3e70b7-6afb-412e-b3cc-1af1122ee688; session_id_welcome=127.0.0.1-266be42a-75f3-4dbd-aa2f-7ea6fc506496</div></td></tr><tr><td style="font-weight:bold;vertical-align:top;">HTTP_HOST</td><td style="vertical-align:top;">:</td><td><div>127.0.0.1:8000</div></td></tr><tr><td style="font-weight:bold;vertical-align:top;">HTTP_UPGRADE_INSECURE_REQUESTS</td><td style="vertical-align:top;">:</td><td><div>1</div></td></tr><tr><td style="font-weight:bold;vertical-align:top;">HTTP_USER_AGENT</td><td style="vertical-align:top;">:</td><td><div>Mozilla/5.0 (Windows NT 10.0; Win64; x64) AppleWebKit/537.36 (KHTML, like Gecko) Chrome/67.0.3396.99 Safari/537.36</div></td></tr><tr><td style="font-weight:bold;vertical-align:top;">PATH_INFO</td><td style="vertical-align:top;">:</td><td><div>/Gym_membership/default/qqq</div></td></tr><tr><td style="font-weight:bold;vertical-align:top;">QUERY_STRING</td><td style="vertical-align:top;">:</td><td><div></div></td></tr><tr><td style="font-weight:bold;vertical-align:top;">REMOTE_ADDR</td><td style="vertical-align:top;">:</td><td><div>127.0.0.1</div></td></tr><tr><td style="font-weight:bold;vertical-align:top;">REMOTE_PORT</td><td style="vertical-align:top;">:</td><td><div>61973</div></td></tr><tr><td style="font-weight:bold;vertical-align:top;">REQUEST_METHOD</td><td style="vertical-align:top;">:</td><td><div>GET</div></td></tr><tr><td style="font-weight:bold;vertical-align:top;">SCRIPT_NAME</td><td style="vertical-align:top;">:</td><td><div></div></td></tr><tr><td style="font-weight:bold;vertical-align:top;">SERVER_NAME</td><td style="vertical-align:top;">:</td><td><div>DESKTOP-TT21R8I</div></td></tr><tr><td style="font-weight:bold;vertical-align:top;">SERVER_PORT</td><td style="vertical-align:top;">:</td><td><div>8000</div></td></tr><tr><td style="font-weight:bold;vertical-align:top;">SERVER_PROTOCOL</td><td style="vertical-align:top;">:</td><td><div>HTTP/1.1</div></td></tr><tr><td style="font-weight:bold;vertical-align:top;">SERVER_SOFTWARE</td><td style="vertical-align:top;">:</td><td><div>Rocket 1.2.6</div></td></tr><tr><td style="font-weight:bold;vertical-align:top;">app_folders</td><td style="vertical-align:top;">:</td><td><div>set([&#x27;C:\\\\Users\\\\Sumani\\\\Downloads\\\\web2py\\\\web2py\\\\applications\\\\Gym_Membership\\\\&#x27;, &#x27;C:\\\\Users\\\\Sumani\\\\Downloads\\\\web2py\\\\web2py\\\\applications\\\\Gym_membership\\\\&#x27;, &#x27;C:\\\\Users\\\\Sumani\\\\Downloads\\\\web2py\\\\web2py\\\\applications\\\\admin\\\\&#x27;, &#x27;C:\\\\Users\\\\Sumani\\\\Downloads\\\\web2py\\\\web2py\\\\applications\\\\welcome\\\\&#x27;])</div></td></tr><tr><td style="font-weight:bold;vertical-align:top;">applications_parent</td><td style="vertical-align:top;">:</td><td><div>C:\\Users\\Sumani\\Downloads\\web2py\\web2py</div></td></tr><tr><td style="font-weight:bold;vertical-align:top;">cmd_args</td><td style="vertical-align:top;">:</td><td><div><table></table></div></td></tr><tr><td style="font-weight:bold;vertical-align:top;">cmd_options</td><td style="vertical-align:top;">:</td><td><div>&lt;Values at 0x2e9deb8: {&#x27;verbose&#x27;: False, &#x27;ip&#x27;: &#x27;127.0.0.1&#x27;, &#x27;debuglevel&#x27;: 30, &#x27;with_scheduler&#x27;: False, &#x27;shutdown_timeout&#x27;: 5, &#x27;taskbar&#x27;: False, &#x27;with_coverage&#x27;: False, &#x27;pid_filename&#x27;: &#x27;httpserver.pid&#x27;, &#x27;maxthreads&#x27;: None, &#x27;softcron&#x27;: False, &#x27;server_name&#x27;: &#x27;DESKTOP-TT21R8I&#x27;, &#x27;bpython&#x27;: False, &#x27;nogui&#x27;: False, &#x27;port&#x27;: 8000, &#x27;print_errors&#x27;: False, &#x27;extcron&#x27;: False, &#x27;runcron&#x27;: False, &#x27;run_system_tests&#x27;: False, &#x27;test&#x27;: None, &#x27;folder&#x27;: &#x27;C:\\\\Users\\\\Sumani\\\\Downloads\\\\web2py\\\\web2py&#x27;, &#x27;config&#x27;: &#x27;&#x27;, &#x27;minthreads&#x27;: None, &#x27;shell&#x27;: None, &#x27;run&#x27;: &#x27;&#x27;, &#x27;log_filename&#x27;: &#x27;httpserver.log&#x27;, &#x27;profiler_dir&#x27;: None, &#x27;args&#x27;: [&#x27;&#x27;], &#x27;socket_timeout&#x27;: 5, &#x27;ssl_ca_certificate&#x27;: None, &#x27;scheduler&#x27;: None, &#x27;interfaces&#x27;: None, &#x27;ssl_private_key&#x27;: &#x27;&#x27;, &#x27;gae&#x27;: None, &#x27;password&#x27;: &#x27;******&#x27;, &#x27;request_queue_size&#x27;: 5, &#x27;ssl_certificate&#x27;: &#x27;&#x27;, &#x27;cronjob&#x27;: False, &#x27;numthreads&#x27;: None, &#x27;quiet&#x27;: False, &#x27;import_models&#x27;: False, &#x27;timeout&#x27;: 10, &#x27;plain&#x27;: False, &#x27;nobanner&#x27;: False}&gt;</div></td></tr><tr><td style="font-weight:bold;vertical-align:top;">db_sessions</td><td style="vertical-align:top;">:</td><td><div>set([])</div></td></tr><tr><td style="font-weight:bold;vertical-align:top;">debugging</td><td style="vertical-align:top;">:</td><td><div>False</div></td></tr><tr><td style="font-weight:bold;vertical-align:top;">gluon_parent</td><td style="vertical-align:top;">:</td><td><div>C:\\Users\\Sumani\\Downloads\\web2py\\web2py</div></td></tr><tr><td style="font-weight:bold;vertical-align:top;">http_accept</td><td style="vertical-align:top;">:</td><td><div>text/html,application/xhtml+xml,application/xml;q=0.9,image/webp,image/apng,*/*;q=0.8</div></td></tr><tr><td style="font-weight:bold;vertical-align:top;">http_accept_encoding</td><td style="vertical-align:top;">:</td><td><div>gzip, deflate, br</div></td></tr><tr><td style="font-weight:bold;vertical-align:top;">http_accept_language</td><td style="vertical-align:top;">:</td><td><div>en-US,en;q=0.9</div></td></tr><tr><td style="font-weight:bold;vertical-align:top;">http_cache_control</td><td style="vertical-align:top;">:</td><td><div>max-age=0</div></td></tr><tr><td style="font-weight:bold;vertical-align:top;">http_connection</td><td style="vertical-align:top;">:</td><td><div>keep-alive</div></td></tr><tr><td style="font-weight:bold;vertical-align:top;">http_cookie</td><td style="vertical-align:top;">:</td><td><div>session_id_admin=127.0.0.1-d045546d-f68a-4278-8ea9-6e5b3410df34; session_id_codetrain=127.0.0.1-984b9676-5330-4342-90cd-a4a7ee63e0f6; session_id_gym_membership=127.0.0.1-1b3e70b7-6afb-412e-b3cc-1af1122ee688; session_id_welcome=127.0.0.1-266be42a-75f3-4dbd-aa2f-7ea6fc506496</div></td></tr><tr><td style="font-weight:bold;vertical-align:top;">http_host</td><td style="vertical-align:top;">:</td><td><div>127.0.0.1:8000</div></td></tr><tr><td style="font-weight:bold;vertical-align:top;">http_upgrade_insecure_requests</td><td style="vertical-align:top;">:</td><td><div>1</div></td></tr><tr><td style="font-weight:bold;vertical-align:top;">http_user_agent</td><td style="vertical-align:top;">:</td><td><div>Mozilla/5.0 (Windows NT 10.0; Win64; x64) AppleWebKit/537.36 (KHTML, like Gecko) Chrome/67.0.3396.99 Safari/537.36</div></td></tr><tr><td style="font-weight:bold;vertical-align:top;">is_jython</td><td style="vertical-align:top;">:</td><td><div>False</div></td></tr><tr><td style="font-weight:bold;vertical-align:top;">is_py2</td><td style="vertical-align:top;">:</td><td><div>True</div></td></tr><tr><td style="font-weight:bold;vertical-align:top;">is_pypy</td><td style="vertical-align:top;">:</td><td><div>False</div></td></tr><tr><td style="font-weight:bold;vertical-align:top;">is_source</td><td style="vertical-align:top;">:</td><td><div>False</div></td></tr><tr><td style="font-weight:bold;vertical-align:top;">local_hosts</td><td style="vertical-align:top;">:</td><td><div><table><tr><td><div>192.168.1.11</div></td></tr><tr><td><div>DESKTOP-TT21R8I.speedport.ip</div></td></tr><tr><td><div>::ffff:127.0.0.1</div></td></tr><tr><td><div>::1</div></td></tr><tr><td><div>127.0.0.1</div></td></tr><tr><td><div>fe80::b142:adc2:c280:1f7a%9</div></td></tr><tr><td><div>DESKTOP-TT21R8I</div></td></tr></table></div></td></tr><tr><td style="font-weight:bold;vertical-align:top;">path_info</td><td style="vertical-align:top;">:</td><td><div>/Gym_membership/default/qqq</div></td></tr><tr><td style="font-weight:bold;vertical-align:top;">query_string</td><td style="vertical-align:top;">:</td><td><div></div></td></tr><tr><td style="font-weight:bold;vertical-align:top;">remote_addr</td><td style="vertical-align:top;">:</td><td><div>127.0.0.1</div></td></tr><tr><td style="font-weight:bold;vertical-align:top;">remote_port</td><td style="vertical-align:top;">:</td><td><div>61973</div></td></tr><tr><td style="font-weight:bold;vertical-align:top;">request_method</td><td style="vertical-align:top;">:</td><td><div>GET</div></td></tr><tr><td style="font-weight:bold;vertical-align:top;">request_uri</td><td style="vertical-align:top;">:</td><td><div>/Gym_membership/default/qqq</div></td></tr><tr><td style="font-weight:bold;vertical-align:top;">script_name</td><td style="vertical-align:top;">:</td><td><div></div></td></tr><tr><td style="font-weight:bold;vertical-align:top;">server_name</td><td style="vertical-align:top;">:</td><td><div>DESKTOP-TT21R8I</div></td></tr><tr><td style="font-weight:bold;vertical-align:top;">server_port</td><td style="vertical-align:top;">:</td><td><div>8000</div></td></tr><tr><td style="font-weight:bold;vertical-align:top;">server_protocol</td><td style="vertical-align:top;">:</td><td><div>HTTP/1.1</div></td></tr><tr><td style="font-weight:bold;vertical-align:top;">server_software</td><td style="vertical-align:top;">:</td><td><div>Rocket 1.2.6</div></td></tr><tr><td style="font-weight:bold;vertical-align:top;">web2py_original_uri</td><td style="vertical-align:top;">:</td><td><div>/Gym_membership/default/qqq</div></td></tr><tr><td style="font-weight:bold;vertical-align:top;">web2py_path</td><td style="vertical-align:top;">:</td><td><div>C:\\Users\\Sumani\\Downloads\\web2py\\web2py</div></td></tr><tr><td style="font-weight:bold;vertical-align:top;">web2py_version</td><td style="vertical-align:top;">:</td><td><div>2.16.1-stable+timestamp.2017.11.14.05.54.25</div></td></tr><tr><td style="font-weight:bold;vertical-align:top;">wsgi.errors</td><td style="vertical-align:top;">:</td><td><div>&lt;open file &#x27;&lt;stderr&gt;&#x27;, mode &#x27;w&#x27; at 0x0216D0D0&gt;</div></td></tr><tr><td style="font-weight:bold;vertical-align:top;">wsgi.file_wrapper</td><td style="vertical-align:top;">:</td><td><div>&lt;class wsgiref.util.FileWrapper at 0x02F5EAE8&gt;</div></td></tr><tr><td style="font-weight:bold;vertical-align:top;">wsgi.input</td><td style="vertical-align:top;">:</td><td><div>&lt;socket._fileobject object at 0x044D42F0&gt;</div></td></tr><tr><td style="font-weight:bold;vertical-align:top;">wsgi.multiprocess</td><td style="vertical-align:top;">:</td><td><div>False</div></td></tr><tr><td style="font-weight:bold;vertical-align:top;">wsgi.multithread</td><td style="vertical-align:top;">:</td><td><div>True</div></td></tr><tr><td style="font-weight:bold;vertical-align:top;">wsgi.run_once</td><td style="vertical-align:top;">:</td><td><div>False</div></td></tr><tr><td style="font-weight:bold;vertical-align:top;">wsgi.url_scheme</td><td style="vertical-align:top;">:</td><td><div>http</div></td></tr><tr><td style="font-weight:bold;vertical-align:top;">wsgi.version</td><td style="vertical-align:top;">:</td><td><div><table><tr><td><div>1</div></td></tr><tr><td><div>0</div></td></tr></table></div></td></tr><tr><td style="font-weight:bold;vertical-align:top;">wsgi_errors</td><td style="vertical-align:top;">:</td><td><div>&lt;open file &#x27;&lt;stderr&gt;&#x27;, mode &#x27;w&#x27; at 0x0216D0D0&gt;</div></td></tr><tr><td style="font-weight:bold;vertical-align:top;">wsgi_file_wrapper</td><td style="vertical-align:top;">:</td><td><div>&lt;class wsgiref.util.FileWrapper at 0x02F5EAE8&gt;</div></td></tr><tr><td style="font-weight:bold;vertical-align:top;">wsgi_input</td><td style="vertical-align:top;">:</td><td><div>&lt;socket._fileobject object at 0x044D42F0&gt;</div></td></tr><tr><td style="font-weight:bold;vertical-align:top;">wsgi_multiprocess</td><td style="vertical-align:top;">:</td><td><div>False</div></td></tr><tr><td style="font-weight:bold;vertical-align:top;">wsgi_multithread</td><td style="vertical-align:top;">:</td><td><div>True</div></td></tr><tr><td style="font-weight:bold;vertical-align:top;">wsgi_run_once</td><td style="vertical-align:top;">:</td><td><div>False</div></td></tr><tr><td style="font-weight:bold;vertical-align:top;">wsgi_url_scheme</td><td style="vertical-align:top;">:</td><td><div>http</div></td></tr><tr><td style="font-weight:bold;vertical-align:top;">wsgi_version</td><td style="vertical-align:top;">:</td><td><div><table><tr><td><div>1</div></td></tr><tr><td><div>0</div></td></tr></table></div></td></tr></table></div></td></tr><tr><td style="font-weight:bold;vertical-align:top;">extension</td><td style="vertical-align:top;">:</td><td><div>html</div></td></tr><tr><td style="font-weight:bold;vertical-align:top;">folder</td><td style="vertical-align:top;">:</td><td><div>C:\\Users\\Sumani\\Downloads\\web2py\\web2py\\applications\\Gym_membership\\</div></td></tr><tr><td style="font-weight:bold;vertical-align:top;">function</td><td style="vertical-align:top;">:</td><td><div>qqq</div></td></tr><tr><td style="font-weight:bold;vertical-align:top;">global_settings</td><td style="vertical-align:top;">:</td><td><div><table><tr><td style="font-weight:bold;vertical-align:top;">app_folders</td><td style="vertical-align:top;">:</td><td><div>set([&#x27;C:\\\\Users\\\\Sumani\\\\Downloads\\\\web2py\\\\web2py\\\\applications\\\\Gym_Membership\\\\&#x27;, &#x27;C:\\\\Users\\\\Sumani\\\\Downloads\\\\web2py\\\\web2py\\\\applications\\\\Gym_membership\\\\&#x27;, &#x27;C:\\\\Users\\\\Sumani\\\\Downloads\\\\web2py\\\\web2py\\\\applications\\\\admin\\\\&#x27;, &#x27;C:\\\\Users\\\\Sumani\\\\Downloads\\\\web2py\\\\web2py\\\\applications\\\\welcome\\\\&#x27;])</div></td></tr><tr><td style="font-weight:bold;vertical-align:top;">applications_parent</td><td style="vertical-align:top;">:</td><td><div>C:\\Users\\Sumani\\Downloads\\web2py\\web2py</div></td></tr><tr><td style="font-weight:bold;vertical-align:top;">cmd_args</td><td style="vertical-align:top;">:</td><td><div><table></table></div></td></tr><tr><td style="font-weight:bold;vertical-align:top;">cmd_options</td><td style="vertical-align:top;">:</td><td><div>&lt;Values at 0x2e9deb8: {&#x27;verbose&#x27;: False, &#x27;ip&#x27;: &#x27;127.0.0.1&#x27;, &#x27;debuglevel&#x27;: 30, &#x27;with_scheduler&#x27;: False, &#x27;shutdown_timeout&#x27;: 5, &#x27;taskbar&#x27;: False, &#x27;with_coverage&#x27;: False, &#x27;pid_filename&#x27;: &#x27;httpserver.pid&#x27;, &#x27;maxthreads&#x27;: None, &#x27;softcron&#x27;: False, &#x27;server_name&#x27;: &#x27;DESKTOP-TT21R8I&#x27;, &#x27;bpython&#x27;: False, &#x27;nogui&#x27;: False, &#x27;port&#x27;: 8000, &#x27;print_errors&#x27;: False, &#x27;extcron&#x27;: False, &#x27;runcron&#x27;: False, &#x27;run_system_tests&#x27;: False, &#x27;test&#x27;: None, &#x27;folder&#x27;: &#x27;C:\\\\Users\\\\Sumani\\\\Downloads\\\\web2py\\\\web2py&#x27;, &#x27;config&#x27;: &#x27;&#x27;, &#x27;minthreads&#x27;: None, &#x27;shell&#x27;: None, &#x27;run&#x27;: &#x27;&#x27;, &#x27;log_filename&#x27;: &#x27;httpserver.log&#x27;, &#x27;profiler_dir&#x27;: None, &#x27;args&#x27;: [&#x27;&#x27;], &#x27;socket_timeout&#x27;: 5, &#x27;ssl_ca_certificate&#x27;: None, &#x27;scheduler&#x27;: None, &#x27;interfaces&#x27;: None, &#x27;ssl_private_key&#x27;: &#x27;&#x27;, &#x27;gae&#x27;: None, &#x27;password&#x27;: &#x27;******&#x27;, &#x27;request_queue_size&#x27;: 5, &#x27;ssl_certificate&#x27;: &#x27;&#x27;, &#x27;cronjob&#x27;: False, &#x27;numthreads&#x27;: None, &#x27;quiet&#x27;: False, &#x27;import_models&#x27;: False, &#x27;timeout&#x27;: 10, &#x27;plain&#x27;: False, &#x27;nobanner&#x27;: False}&gt;</div></td></tr><tr><td style="font-weight:bold;vertical-align:top;">db_sessions</td><td style="vertical-align:top;">:</td><td><div>set([])</div></td></tr><tr><td style="font-weight:bold;vertical-align:top;">debugging</td><td style="vertical-align:top;">:</td><td><div>False</div></td></tr><tr><td style="font-weight:bold;vertical-align:top;">gluon_parent</td><td style="vertical-align:top;">:</td><td><div>C:\\Users\\Sumani\\Downloads\\web2py\\web2py</div></td></tr><tr><td style="font-weight:bold;vertical-align:top;">is_jython</td><td style="vertical-align:top;">:</td><td><div>False</div></td></tr><tr><td style="font-weight:bold;vertical-align:top;">is_py2</td><td style="vertical-align:top;">:</td><td><div>True</div></td></tr><tr><td style="font-weight:bold;vertical-align:top;">is_pypy</td><td style="vertical-align:top;">:</td><td><div>False</div></td></tr><tr><td style="font-weight:bold;vertical-align:top;">is_source</td><td style="vertical-align:top;">:</td><td><div>False</div></td></tr><tr><td style="font-weight:bold;vertical-align:top;">local_hosts</td><td style="vertical-align:top;">:</td><td><div><table><tr><td><div>192.168.1.11</div></td></tr><tr><td><div>DESKTOP-TT21R8I.speedport.ip</div></td></tr><tr><td><div>::ffff:127.0.0.1</div></td></tr><tr><td><div>::1</div></td></tr><tr><td><div>127.0.0.1</div></td></tr><tr><td><div>fe80::b142:adc2:c280:1f7a%9</div></td></tr><tr><td><div>DESKTOP-TT21R8I</div></td></tr></table></div></td></tr><tr><td style="font-weight:bold;vertical-align:top;">web2py_version</td><td style="vertical-align:top;">:</td><td><div>2.16.1-stable+timestamp.2017.11.14.05.54.25</div></td></tr></table></div></td></tr><tr><td style="font-weight:bold;vertical-align:top;">is_https</td><td style="vertical-align:top;">:</td><td><div>False</div></td></tr><tr><td style="font-weight:bold;vertical-align:top;">is_local</td><td style="vertical-align:top;">:</td><td><div>True</div></td></tr><tr><td style="font-weight:bold;vertical-align:top;">is_restful</td><td style="vertical-align:top;">:</td><td><div>False</div></td></tr><tr><td style="font-weight:bold;vertical-align:top;">is_scheduler</td><td style="vertical-align:top;">:</td><td><div>False</div></td></tr><tr><td style="font-weight:bold;vertical-align:top;">is_shell</td><td style="vertical-align:top;">:</td><td><div>False</div></td></tr><tr><td style="font-weight:bold;vertical-align:top;">now</td><td style="vertical-align:top;">:</td><td><div>datetime.datetime(2018, 7, 19, 16, 26, 31, 153000)</div></td></tr><tr><td style="font-weight:bold;vertical-align:top;">raw_args</td><td style="vertical-align:top;">:</td><td><div></div></td></tr><tr><td style="font-weight:bold;vertical-align:top;">raw_extension</td><td style="vertical-align:top;">:</td><td><div>None</div></td></tr><tr><td style="font-weight:bold;vertical-align:top;">url</td><td style="vertical-align:top;">:</td><td><div>/Gym_membership/default/qqq</div></td></tr><tr><td style="font-weight:bold;vertical-align:top;">utcnow</td><td style="vertical-align:top;">:</td><td><div>datetime.datetime(2018, 7, 19, 16, 26, 31, 153000)</div></td></tr><tr><td style="font-weight:bold;vertical-align:top;">wsgi</td><td style="vertical-align:top;">:</td><td><div>&lt;gluon.main.LazyWSGI object at 0x044D51F0&gt;</div></td></tr></table></div>'
tRp58
sS'frames'
p59
(lp60
(dp61
S'file'
p62
S'C:\\Users\\Sumani\\Downloads\\web2py\\web2py\\gluon\\main.py'
p63
sS'dump'
p64
(dp65
S'global serve_controller'
p66
S'<function serve_controller>'
p67
sS'session'
p68
S"<Storage {'_formkey[users/create]': ['252586b2-6...4d480', 'a6790ab1-4c58-4bcf-8327-b73b82f468b7']}>"
p69
sS'request'
p70
S"<Storage {'_vars': None, 'function': 'qqq', 'coo...web2py\\\\web2py\\\\applications\\\\Gym_membership\\\\'}>"
p71
sS'response'
p72
S"<Storage {'body': <cStringIO.StringO object at 0...bda> at 0x047D3130>, 'view': 'default/qqq.html'}>"
p73
ssS'lnum'
p74
I445
sS'lines'
p75
(dp76
I448
S''
sI449
S'                if static_file:'
p77
sI440
S'                if global_settings.debugging and app != "admin":'
p78
sI441
S'                    import gluon.debug'
p79
sI442
S'                    # activate the debugger'
p80
sI443
S'                    gluon.debug.dbg.do_debug(mainpyfile=request.folder)'
p81
sI444
S''
sI445
S'                serve_controller(request, response, session)'
p82
sI446
S'            except HTTP as hr:'
p83
sI447
S'                http_response = hr'
p84
ssS'call'
p85
S"(environ={'HTTP_ACCEPT': 'text/html,application/xhtml+xml,application/xml;q=0.9,image/webp,image/apng,*/*;q=0.8', 'HTTP_ACCEPT_ENCODING': 'gzip, deflate, br', 'HTTP_ACCEPT_LANGUAGE': 'en-US,en;q=0.9', 'HTTP_CACHE_CONTROL': 'max-age=0', 'HTTP_CONNECTION': 'keep-alive', 'HTTP_COOKIE': 'session_id_admin=127.0.0.1-d045546d-f68a-4278-8e...me=127.0.0.1-266be42a-75f3-4dbd-aa2f-7ea6fc506496', 'HTTP_HOST': '127.0.0.1:8000', 'HTTP_UPGRADE_INSECURE_REQUESTS': '1', 'HTTP_USER_AGENT': 'Mozilla/5.0 (Windows NT 10.0; Win64; x64) AppleW...ML, like Gecko) Chrome/67.0.3396.99 Safari/537.36', 'PATH_INFO': '/Gym_membership/default/qqq', ...}, responder=<function responder2>)"
p86
sS'func'
p87
S'wsgibase'
p88
sa(dp89
g62
S'C:\\Users\\Sumani\\Downloads\\web2py\\web2py\\gluon\\main.py'
p90
sg64
(dp91
S'response._view_environment'
p92
S"{'A': <class 'gluon.html.A'>, 'ANY_OF': <class 'gluon.validators.ANY_OF'>, 'ASSIGNJS': <function ASSIGNJS>, 'AppConfig': <function AppConfig>, 'B': <class 'gluon.html.B'>, 'BEAUTIFY': <class 'gluon.html.BEAUTIFY'>, 'BODY': <class 'gluon.html.BODY'>, 'BR': <class 'gluon.html.BR'>, 'BUTTON': <class 'gluon.html.BUTTON'>, 'CAT': <class 'gluon.html.CAT'>, ...}"
p93
sS'page'
p94
g17
sS'global run_view_in'
p95
S'<function run_view_in>'
p96
sS'response'
p97
S"<Storage {'body': <cStringIO.StringO object at 0...bda> at 0x047D3130>, 'view': 'default/qqq.html'}>"
p98
ssg74
I184
sg75
(dp99
I179
S'    response._view_environment = copy.copy(environment)'
p100
sI180
S'    page = run_controller_in(request.controller, request.function, environment)'
p101
sI181
S'    if isinstance(page, dict):'
p102
sI182
S'        response._vars = page'
p103
sI183
S'        response._view_environment.update(page)'
p104
sI184
S'        page = run_view_in(response._view_environment)'
p105
sI185
S''
sI186
S'    # logic to garbage collect after exec, not always, once every 100 requests'
p106
sI187
S'    global requests'
p107
sI188
S"    requests = ('requests' in globals()) and (requests + 1) % 100 or 0"
p108
ssg85
S"(request=<Storage {'_vars': None, 'function': 'qqq', 'coo...web2py\\\\web2py\\\\applications\\\\Gym_membership\\\\'}>, response=<Storage {'body': <cStringIO.StringO object at 0...bda> at 0x047D3130>, 'view': 'default/qqq.html'}>, session=<Storage {'_formkey[users/create]': ['252586b2-6...4d480', 'a6790ab1-4c58-4bcf-8327-b73b82f468b7']}>)"
p109
sg87
S'serve_controller'
p110
sa(dp111
g62
S'C:\\Users\\Sumani\\Downloads\\web2py\\web2py\\gluon\\compileapp.py'
p112
sg64
(dp113
S'environment'
p114
S"{'A': <class 'gluon.html.A'>, 'ANY_OF': <class 'gluon.validators.ANY_OF'>, 'ASSIGNJS': <function ASSIGNJS>, 'AppConfig': <function AppConfig>, 'B': <class 'gluon.html.B'>, 'BEAUTIFY': <class 'gluon.html.BEAUTIFY'>, 'BODY': <class 'gluon.html.BODY'>, 'BR': <class 'gluon.html.BR'>, 'BUTTON': <class 'gluon.html.BUTTON'>, 'CAT': <class 'gluon.html.CAT'>, ...}"
p115
sS'context'
p116
S'undefined'
p117
ssg74
I724
sg75
(dp118
I719
S'                           rewrite.THREAD_LOCAL.routes.error_message % badv,'
p119
sI720
S'                           web2py_error=badv)'
p120
sI721
S'            # Parse template'
p121
sI722
S'            scode = parse_template(view,'
p122
sI723
S"                                   pjoin(folder, 'views'),"
p123
sI724
S'                                   context=environment)'
p124
sI725
S'            # Compile template'
p125
sI726
S'            ccode = compile2(scode, filename)'
p126
sI727
S'            layer = filename'
p127
sI728
S'    restricted(ccode, environment, layer=layer, scode=scode)'
p128
ssg85
S"(environment={'A': <class 'gluon.html.A'>, 'ANY_OF': <class 'gluon.validators.ANY_OF'>, 'ASSIGNJS': <function ASSIGNJS>, 'AppConfig': <function AppConfig>, 'B': <class 'gluon.html.B'>, 'BEAUTIFY': <class 'gluon.html.BEAUTIFY'>, 'BODY': <class 'gluon.html.BODY'>, 'BR': <class 'gluon.html.BR'>, 'BUTTON': <class 'gluon.html.BUTTON'>, 'CAT': <class 'gluon.html.CAT'>, ...})"
p129
sg87
S'run_view_in'
p130
sa(dp131
g62
S'C:\\Users\\Sumani\\Downloads\\web2py\\web2py\\gluon\\template.py'
p132
sg64
(dp133
S'builtinstr'
p134
S"<type 'str'>"
p135
sS'global TemplateParser'
p136
S"<class 'gluon.template.TemplateParser'>"
p137
sS'delimiters'
p138
S"('{{', '}}')"
p139
sS'context'
p140
S"{'A': <class 'gluon.html.A'>, 'ANY_OF': <class 'gluon.validators.ANY_OF'>, 'ASSIGNJS': <function ASSIGNJS>, 'AppConfig': <function AppConfig>, 'B': <class 'gluon.html.B'>, 'BEAUTIFY': <class 'gluon.html.BEAUTIFY'>, 'BODY': <class 'gluon.html.BODY'>, 'BR': <class 'gluon.html.BR'>, 'BUTTON': <class 'gluon.html.BUTTON'>, 'CAT': <class 'gluon.html.CAT'>, ...}"
p141
sS'text'
p142
S"'<!DOCTYPE html>\\r\\n<html>\\r\\n<head>\\r\\n\\t<title></title...\\n\\t{{extend my_layout.html}}\\r\\n</body>\\r\\n</html>\\r\\n\\r\\n'"
p143
sS'path'
p144
S"r'C:\\Users\\Sumani\\Downloads\\web2py\\web2py\\applications\\Gym_membership\\views'"
p145
sS'lexers'
p146
g17
ssg74
I792
sg75
(dp147
I787
S"            raise RestrictedError(filename, '', 'Unable to find the file')"
p148
sI788
S'    else:'
p149
sI789
S'        text = filename.read()'
p150
sI790
S'    text = to_native(text)'
p151
sI791
S'    # Use the file contents to get a parsed template and return it.'
p152
sI792
S'    return str(TemplateParser(text, context=context, path=path, lexers=lexers, delimiters=delimiters))'
p153
sI793
S''
sI794
S''
sI795
S'def get_parsed(text):'
p154
sI796
S'    """'
p155
ssg85
S"(filename='default/qqq.html', path=r'C:\\Users\\Sumani\\Downloads\\web2py\\web2py\\applications\\Gym_membership\\views', context={'A': <class 'gluon.html.A'>, 'ANY_OF': <class 'gluon.validators.ANY_OF'>, 'ASSIGNJS': <function ASSIGNJS>, 'AppConfig': <function AppConfig>, 'B': <class 'gluon.html.B'>, 'BEAUTIFY': <class 'gluon.html.BEAUTIFY'>, 'BODY': <class 'gluon.html.BODY'>, 'BR': <class 'gluon.html.BR'>, 'BUTTON': <class 'gluon.html.BUTTON'>, 'CAT': <class 'gluon.html.CAT'>, ...}, lexers={}, delimiters=('{{', '}}'))"
p156
sg87
S'parse_template'
p157
sa(dp158
g62
S'C:\\Users\\Sumani\\Downloads\\web2py\\web2py\\gluon\\template.py'
p159
sg64
(dp160
S'text'
p161
S"'<!DOCTYPE html>\\r\\n<html>\\r\\n<head>\\r\\n\\t<title></title...\\n\\t{{extend my_layout.html}}\\r\\n</body>\\r\\n</html>\\r\\n\\r\\n'"
p162
sS'self'
p163
S'<gluon.template.TemplateParser object>'
p164
sS'self.parse'
p165
S'<bound method TemplateParser.parse of <gluon.template.TemplateParser object>>'
p166
ssg74
I314
sg75
(dp167
I309
S'        # This variable will hold a reference to every block'
p168
sI310
S'        # that we come across in this template'
p169
sI311
S'        self.blocks = {}'
p170
sI312
S''
sI313
S'        # Begin parsing.'
p171
sI314
S'        self.parse(text)'
p172
sI315
S''
sI316
S'    def to_string(self):'
p173
sI317
S'        """'
p174
sI318
S'        Returns the parsed template with correct indentation.'
p175
ssg85
S"(self=<gluon.template.TemplateParser object>, text='<!DOCTYPE html>\\r\\n<html>\\r\\n<head>\\r\\n\\t<title></title...\\n\\t{{extend my_layout.html}}\\r\\n</body>\\r\\n</html>\\r\\n\\r\\n', name='ParserContainer', context={'A': <class 'gluon.html.A'>, 'ANY_OF': <class 'gluon.validators.ANY_OF'>, 'ASSIGNJS': <function ASSIGNJS>, 'AppConfig': <function AppConfig>, 'B': <class 'gluon.html.B'>, 'BEAUTIFY': <class 'gluon.html.BEAUTIFY'>, 'BODY': <class 'gluon.html.BODY'>, 'BR': <class 'gluon.html.BR'>, 'BUTTON': <class 'gluon.html.BUTTON'>, 'CAT': <class 'gluon.html.CAT'>, ...}, path=r'C:\\Users\\Sumani\\Downloads\\web2py\\web2py\\applications\\Gym_membership\\views', writer='response.write', lexers={}, delimiters=('{{', '}}'), _super_nodes=[])"
p176
sg87
g22
sa(dp177
g62
S'C:\\Users\\Sumani\\Downloads\\web2py\\web2py\\gluon\\template.py'
p178
sg64
(dp179
S'self'
p180
S'<gluon.template.TemplateParser object>'
p181
sS'extend'
p182
S"'my_layout.html'"
p183
sS'self.extend'
p184
S'<bound method TemplateParser.extend of <gluon.template.TemplateParser object>>'
p185
ssg74
I760
sg75
(dp186
I755
S'            # Sometimes I miss C-Style pointers... I want my asterisk...'
p187
sI756
S'            self.child_super_nodes.remove(node)'
p188
sI757
S''
sI758
S'        # If we need to extend a template.'
p189
sI759
S'        if extend:'
p190
sI760
S'            self.extend(extend)'
p191
sI761
S''
sI762
S'# We need this for integration with gluon'
p192
sI763
S''
sI764
S''
ssg85
S"(self=<gluon.template.TemplateParser object>, text='<!DOCTYPE html>\\r\\n<html>\\r\\n<head>\\r\\n\\t<title></title...\\n\\t{{extend my_layout.html}}\\r\\n</body>\\r\\n</html>\\r\\n\\r\\n')"
p193
sg87
S'parse'
p194
sa(dp195
g62
S'C:\\Users\\Sumani\\Downloads\\web2py\\web2py\\gluon\\template.py'
p196
sg64
(dp197
S'text'
p198
g117
sS'self'
p199
S'<gluon.template.TemplateParser object>'
p200
sS'self._get_file_text'
p201
S'<bound method TemplateParser._get_file_text of <gluon.template.TemplateParser object>>'
p202
sS'filename'
p203
S"'my_layout.html'"
p204
sS'builtintuple'
p205
S"<type 'tuple'>"
p206
sS'self.delimiters'
p207
S"('{{', '}}')"
p208
ssg74
I474
sg75
(dp209
I469
S'        """'
p210
sI470
S'        Extends `filename`. Anything not declared in a block defined by the'
p211
sI471
S'        parent will be placed in the parent templates `{{include}}` block.'
p212
sI472
S'        """'
p213
sI473
S'        # If no filename, create a dummy layout with only an {{include}}.'
p214
sI474
S"        text = self._get_file_text(filename) or '%sinclude%s' % tuple(self.delimiters)"
p215
sI475
S''
sI476
S'        # Create out nodes list to send to the parent'
p216
sI477
S'        super_nodes = []'
p217
sI478
S'        # We want to include any non-handled nodes.'
p218
ssg85
S"(self=<gluon.template.TemplateParser object>, filename='my_layout.html')"
p219
sg87
S'extend'
p220
sa(dp221
g62
S'C:\\Users\\Sumani\\Downloads\\web2py\\web2py\\gluon\\template.py'
p222
sg64
(dp223
S'builtineval'
p224
S'<built-in function eval>'
p225
sS'context'
p226
S"{'A': <class 'gluon.html.A'>, 'ANY_OF': <class 'gluon.validators.ANY_OF'>, 'ASSIGNJS': <function ASSIGNJS>, 'AppConfig': <function AppConfig>, 'B': <class 'gluon.html.B'>, 'BEAUTIFY': <class 'gluon.html.BEAUTIFY'>, 'BODY': <class 'gluon.html.BODY'>, 'BR': <class 'gluon.html.BR'>, 'BUTTON': <class 'gluon.html.BUTTON'>, 'CAT': <class 'gluon.html.CAT'>, ...}"
p227
sS'filename'
p228
S"'my_layout.html'"
p229
ssg74
I434
sg75
(dp230
I429
S'        if current and "response" not in context:'
p231
sI430
S'            context["response"] = getattr(current, \'response\', None)'
p232
sI431
S''
sI432
S'        # Get the filename; filename looks like ``"template.html"``.'
p233
sI433
S'        # We need to eval to remove the quotes and get the string type.'
p234
sI434
S'        filename = eval(filename, context)'
p235
sI435
S''
sI436
S'        # Allow empty filename for conditional extend and include directives.'
p236
sI437
S'        if not filename:'
p237
sI438
S"            return ''"
p238
ssg85
S"(self=<gluon.template.TemplateParser object>, filename='my_layout.html')"
p239
sg87
S'_get_file_text'
p240
sa(dp241
g62
S'C:\\Users\\Sumani\\Downloads\\web2py\\web2py\\<string>'
p242
sg64
(dp243
sg74
I1
sg75
(dp244
sg85
S'()'
p245
sg87
S'<module>'
p246
sasS'pyver'
p247
S'Python 2.7.9: C:\\Users\\Sumani\\Downloads\\web2py\\web2py\\web2py.exe (prefix: )'
p248
sS'session'
p249
g57
(S's6\x01\x00\x00<div><table><tr><td style="font-weight:bold;vertical-align:top;">last_orderby</td><td style="vertical-align:top;">:</td><td><div>None</div></td></tr><tr><td style="font-weight:bold;vertical-align:top;">last_query</td><td style="vertical-align:top;">:</td><td><div>db.users.id&gt;0</div></td></tr></table></div>'
tRp250
sS'etype'
p251
S"<type 'exceptions.NameError'>"
p252
sS'date'
p253
S'Thu Jul 19 16:26:31 2018'
p254
sS'response'
p255
g57
(S's=:\x00\x00<div><table><tr><td style="font-weight:bold;vertical-align:top;">body</td><td style="vertical-align:top;">:</td><td><div>&lt;cStringIO.StringO object at 0x045A3BA0&gt;</div></td></tr><tr><td style="font-weight:bold;vertical-align:top;">cookies</td><td style="vertical-align:top;">:</td><td><div><table><tr><td style="font-weight:bold;vertical-align:top;">session_id_gym_membership</td><td style="vertical-align:top;">:</td><td><div>127.0.0.1-1b3e70b7-6afb-412e-b3cc-1af1122ee688<table><tr><td style="font-weight:bold;vertical-align:top;">comment</td><td style="vertical-align:top;">:</td><td><div></div></td></tr><tr><td style="font-weight:bold;vertical-align:top;">domain</td><td style="vertical-align:top;">:</td><td><div></div></td></tr><tr><td style="font-weight:bold;vertical-align:top;">expires</td><td style="vertical-align:top;">:</td><td><div></div></td></tr><tr><td style="font-weight:bold;vertical-align:top;">httponly</td><td style="vertical-align:top;">:</td><td><div></div></td></tr><tr><td style="font-weight:bold;vertical-align:top;">max-age</td><td style="vertical-align:top;">:</td><td><div></div></td></tr><tr><td style="font-weight:bold;vertical-align:top;">path</td><td style="vertical-align:top;">:</td><td><div>/</div></td></tr><tr><td style="font-weight:bold;vertical-align:top;">secure</td><td style="vertical-align:top;">:</td><td><div></div></td></tr><tr><td style="font-weight:bold;vertical-align:top;">version</td><td style="vertical-align:top;">:</td><td><div></div></td></tr></table></div></td></tr></table></div></td></tr><tr><td style="font-weight:bold;vertical-align:top;">delimiters</td><td style="vertical-align:top;">:</td><td><div><table><tr><td><div>{{</div></td></tr><tr><td><div>}}</div></td></tr></table></div></td></tr><tr><td style="font-weight:bold;vertical-align:top;">files</td><td style="vertical-align:top;">:</td><td><div><table></table></div></td></tr><tr><td style="font-weight:bold;vertical-align:top;">flash</td><td style="vertical-align:top;">:</td><td><div></div></td></tr><tr><td style="font-weight:bold;vertical-align:top;">form_label_separator</td><td style="vertical-align:top;">:</td><td><div>: </div></td></tr><tr><td style="font-weight:bold;vertical-align:top;">formstyle</td><td style="vertical-align:top;">:</td><td><div>table3cols</div></td></tr><tr><td style="font-weight:bold;vertical-align:top;">generic_patterns</td><td style="vertical-align:top;">:</td><td><div><table><tr><td><div>*</div></td></tr></table></div></td></tr><tr><td style="font-weight:bold;vertical-align:top;">headers</td><td style="vertical-align:top;">:</td><td><div><table><tr><td style="font-weight:bold;vertical-align:top;">X-Powered-By</td><td style="vertical-align:top;">:</td><td><div>web2py</div></td></tr></table></div></td></tr><tr><td style="font-weight:bold;vertical-align:top;">menu</td><td style="vertical-align:top;">:</td><td><div><table><tr><td><div><table><tr><td><div>Home</div></td></tr><tr><td><div>False</div></td></tr><tr><td><div>/Gym_membership/default/index</div></td></tr><tr><td><div><table></table></div></td></tr></table></div></td></tr><tr><td><div><table><tr><td><div>My Sites</div></td></tr><tr><td><div>False</div></td></tr><tr><td><div>/admin/default/site</div></td></tr></table></div></td></tr><tr><td><div><table><tr><td><div>This App</div></td></tr><tr><td><div>False</div></td></tr><tr><td><div>#</div></td></tr><tr><td><div><table><tr><td><div><table><tr><td><div>Design</div></td></tr><tr><td><div>False</div></td></tr><tr><td><div>/admin/default/design/Gym_membership</div></td></tr></table></div></td></tr><tr><td><div><table><tr><td><div>Controller</div></td></tr><tr><td><div>False</div></td></tr><tr><td><div>/admin/default/edit/Gym_membership/controllers/default.py</div></td></tr></table></div></td></tr><tr><td><div><table><tr><td><div>View</div></td></tr><tr><td><div>False</div></td></tr><tr><td><div>/admin/default/edit/Gym_membership/views/default/qqq.html</div></td></tr></table></div></td></tr><tr><td><div><table><tr><td><div>DB Model</div></td></tr><tr><td><div>False</div></td></tr><tr><td><div>/admin/default/edit/Gym_membership/models/db.py</div></td></tr></table></div></td></tr><tr><td><div><table><tr><td><div>Menu Model</div></td></tr><tr><td><div>False</div></td></tr><tr><td><div>/admin/default/edit/Gym_membership/models/menu.py</div></td></tr></table></div></td></tr><tr><td><div><table><tr><td><div>Config.ini</div></td></tr><tr><td><div>False</div></td></tr><tr><td><div>/admin/default/edit/Gym_membership/private/appconfig.ini</div></td></tr></table></div></td></tr><tr><td><div><table><tr><td><div>Layout</div></td></tr><tr><td><div>False</div></td></tr><tr><td><div>/admin/default/edit/Gym_membership/views/layout.html</div></td></tr></table></div></td></tr><tr><td><div><table><tr><td><div>Stylesheet</div></td></tr><tr><td><div>False</div></td></tr><tr><td><div>/admin/default/edit/Gym_membership/static/css/web2py-bootstrap3.css</div></td></tr></table></div></td></tr><tr><td><div><table><tr><td><div>Database</div></td></tr><tr><td><div>False</div></td></tr><tr><td><div>/Gym_membership/appadmin/index</div></td></tr></table></div></td></tr><tr><td><div><table><tr><td><div>Errors</div></td></tr><tr><td><div>False</div></td></tr><tr><td><div>/admin/default/errors/Gym_membership</div></td></tr></table></div></td></tr><tr><td><div><table><tr><td><div>About</div></td></tr><tr><td><div>False</div></td></tr><tr><td><div>/admin/default/about/Gym_membership</div></td></tr></table></div></td></tr></table></div></td></tr></table></div></td></tr><tr><td><div><table><tr><td><div>web2py.com</div></td></tr><tr><td><div>False</div></td></tr><tr><td><div>#</div></td></tr><tr><td><div><table><tr><td><div><table><tr><td><div>Download</div></td></tr><tr><td><div>False</div></td></tr><tr><td><div>http://www.web2py.com/examples/default/download</div></td></tr></table></div></td></tr><tr><td><div><table><tr><td><div>Support</div></td></tr><tr><td><div>False</div></td></tr><tr><td><div>http://www.web2py.com/examples/default/support</div></td></tr></table></div></td></tr><tr><td><div><table><tr><td><div>Demo</div></td></tr><tr><td><div>False</div></td></tr><tr><td><div>http://web2py.com/demo_admin</div></td></tr></table></div></td></tr><tr><td><div><table><tr><td><div>Quick Examples</div></td></tr><tr><td><div>False</div></td></tr><tr><td><div>http://web2py.com/examples/default/examples</div></td></tr></table></div></td></tr><tr><td><div><table><tr><td><div>FAQ</div></td></tr><tr><td><div>False</div></td></tr><tr><td><div>http://web2py.com/AlterEgo</div></td></tr></table></div></td></tr><tr><td><div><table><tr><td><div>Videos</div></td></tr><tr><td><div>False</div></td></tr><tr><td><div>http://www.web2py.com/examples/default/videos/</div></td></tr></table></div></td></tr><tr><td><div><table><tr><td><div>Free Applications</div></td></tr><tr><td><div>False</div></td></tr><tr><td><div>http://web2py.com/appliances</div></td></tr></table></div></td></tr><tr><td><div><table><tr><td><div>Plugins</div></td></tr><tr><td><div>False</div></td></tr><tr><td><div>http://web2py.com/plugins</div></td></tr></table></div></td></tr><tr><td><div><table><tr><td><div>Recipes</div></td></tr><tr><td><div>False</div></td></tr><tr><td><div>http://web2pyslices.com/</div></td></tr></table></div></td></tr></table></div></td></tr></table></div></td></tr><tr><td><div><table><tr><td><div>Documentation</div></td></tr><tr><td><div>False</div></td></tr><tr><td><div>#</div></td></tr><tr><td><div><table><tr><td><div><table><tr><td><div>Online book</div></td></tr><tr><td><div>False</div></td></tr><tr><td><div>http://www.web2py.com/book</div></td></tr></table></div></td></tr><tr><td><div><table><tr><td><div>Preface</div></td></tr><tr><td><div>False</div></td></tr><tr><td><div>http://www.web2py.com/book/default/chapter/00</div></td></tr></table></div></td></tr><tr><td><div><table><tr><td><div>Introduction</div></td></tr><tr><td><div>False</div></td></tr><tr><td><div>http://www.web2py.com/book/default/chapter/01</div></td></tr></table></div></td></tr><tr><td><div><table><tr><td><div>Python</div></td></tr><tr><td><div>False</div></td></tr><tr><td><div>http://www.web2py.com/book/default/chapter/02</div></td></tr></table></div></td></tr><tr><td><div><table><tr><td><div>Overview</div></td></tr><tr><td><div>False</div></td></tr><tr><td><div>http://www.web2py.com/book/default/chapter/03</div></td></tr></table></div></td></tr><tr><td><div><table><tr><td><div>The Core</div></td></tr><tr><td><div>False</div></td></tr><tr><td><div>http://www.web2py.com/book/default/chapter/04</div></td></tr></table></div></td></tr><tr><td><div><table><tr><td><div>The Views</div></td></tr><tr><td><div>False</div></td></tr><tr><td><div>http://www.web2py.com/book/default/chapter/05</div></td></tr></table></div></td></tr><tr><td><div><table><tr><td><div>Database</div></td></tr><tr><td><div>False</div></td></tr><tr><td><div>http://www.web2py.com/book/default/chapter/06</div></td></tr></table></div></td></tr><tr><td><div><table><tr><td><div>Forms and Validators</div></td></tr><tr><td><div>False</div></td></tr><tr><td><div>http://www.web2py.com/book/default/chapter/07</div></td></tr></table></div></td></tr><tr><td><div><table><tr><td><div>Email and SMS</div></td></tr><tr><td><div>False</div></td></tr><tr><td><div>http://www.web2py.com/book/default/chapter/08</div></td></tr></table></div></td></tr><tr><td><div><table><tr><td><div>Access Control</div></td></tr><tr><td><div>False</div></td></tr><tr><td><div>http://www.web2py.com/book/default/chapter/09</div></td></tr></table></div></td></tr><tr><td><div><table><tr><td><div>Services</div></td></tr><tr><td><div>False</div></td></tr><tr><td><div>http://www.web2py.com/book/default/chapter/10</div></td></tr></table></div></td></tr><tr><td><div><table><tr><td><div>Ajax Recipes</div></td></tr><tr><td><div>False</div></td></tr><tr><td><div>http://www.web2py.com/book/default/chapter/11</div></td></tr></table></div></td></tr><tr><td><div><table><tr><td><div>Components and Plugins</div></td></tr><tr><td><div>False</div></td></tr><tr><td><div>http://www.web2py.com/book/default/chapter/12</div></td></tr></table></div></td></tr><tr><td><div><table><tr><td><div>Deployment Recipes</div></td></tr><tr><td><div>False</div></td></tr><tr><td><div>http://www.web2py.com/book/default/chapter/13</div></td></tr></table></div></td></tr><tr><td><div><table><tr><td><div>Other Recipes</div></td></tr><tr><td><div>False</div></td></tr><tr><td><div>http://www.web2py.com/book/default/chapter/14</div></td></tr></table></div></td></tr><tr><td><div><table><tr><td><div>Helping web2py</div></td></tr><tr><td><div>False</div></td></tr><tr><td><div>http://www.web2py.com/book/default/chapter/15</div></td></tr></table></div></td></tr><tr><td><div><table><tr><td><div>Buy web2py\'s book</div></td></tr><tr><td><div>False</div></td></tr><tr><td><div>http://stores.lulu.com/web2py</div></td></tr></table></div></td></tr></table></div></td></tr></table></div></td></tr><tr><td><div><table><tr><td><div>Community</div></td></tr><tr><td><div>False</div></td></tr><tr><td><div>None</div></td></tr><tr><td><div><table><tr><td><div><table><tr><td><div>Groups</div></td></tr><tr><td><div>False</div></td></tr><tr><td><div>http://www.web2py.com/examples/default/usergroups</div></td></tr></table></div></td></tr><tr><td><div><table><tr><td><div>Twitter</div></td></tr><tr><td><div>False</div></td></tr><tr><td><div>http://twitter.com/web2py</div></td></tr></table></div></td></tr><tr><td><div><table><tr><td><div>Live Chat</div></td></tr><tr><td><div>False</div></td></tr><tr><td><div>http://webchat.freenode.net/?channels=web2py</div></td></tr></table></div></td></tr></table></div></td></tr></table></div></td></tr></table></div></td></tr><tr><td style="font-weight:bold;vertical-align:top;">meta</td><td style="vertical-align:top;">:</td><td><div><table></table></div></td></tr><tr><td style="font-weight:bold;vertical-align:top;">models_to_run</td><td style="vertical-align:top;">:</td><td><div><table><tr><td><div>^\\w+\\.py$</div></td></tr><tr><td><div>^default/\\w+\\.py$</div></td></tr><tr><td><div>^default/qqq/\\w+\\.py$</div></td></tr></table></div></td></tr><tr><td style="font-weight:bold;vertical-align:top;">postprocessing</td><td style="vertical-align:top;">:</td><td><div><table></table></div></td></tr><tr><td style="font-weight:bold;vertical-align:top;">session_client</td><td style="vertical-align:top;">:</td><td><div>127.0.0.1</div></td></tr><tr><td style="font-weight:bold;vertical-align:top;">session_cookie_compression_level</td><td style="vertical-align:top;">:</td><td><div>None</div></td></tr><tr><td style="font-weight:bold;vertical-align:top;">session_cookie_expires</td><td style="vertical-align:top;">:</td><td><div>None</div></td></tr><tr><td style="font-weight:bold;vertical-align:top;">session_data_name</td><td style="vertical-align:top;">:</td><td><div>session_data_gym_membership</div></td></tr><tr><td style="font-weight:bold;vertical-align:top;">session_file</td><td style="vertical-align:top;">:</td><td><div>&lt;open file &#x27;C:\\\\Users\\\\Sumani\\\\Downloads\\\\web2py\\\\web2py\\\\applications\\\\Gym_membership\\\\sessions\\\\090\\\\01c\\\\127.0.0.1-1b3e70b7-6afb-412e-b3cc-1af1122ee688&#x27;, mode &#x27;rb+&#x27; at 0x044A5020&gt;</div></td></tr><tr><td style="font-weight:bold;vertical-align:top;">session_filename</td><td style="vertical-align:top;">:</td><td><div>C:\\Users\\Sumani\\Downloads\\web2py\\web2py\\applications\\Gym_membership\\sessions\\127.0.0.1-1b3e70b7-6afb-412e-b3cc-1af1122ee688</div></td></tr><tr><td style="font-weight:bold;vertical-align:top;">session_hash</td><td style="vertical-align:top;">:</td><td><div>350140ec15403ee4770c37a92acdb371</div></td></tr><tr><td style="font-weight:bold;vertical-align:top;">session_id</td><td style="vertical-align:top;">:</td><td><div>127.0.0.1-1b3e70b7-6afb-412e-b3cc-1af1122ee688</div></td></tr><tr><td style="font-weight:bold;vertical-align:top;">session_id_name</td><td style="vertical-align:top;">:</td><td><div>session_id_gym_membership</div></td></tr><tr><td style="font-weight:bold;vertical-align:top;">session_locked</td><td style="vertical-align:top;">:</td><td><div>True</div></td></tr><tr><td style="font-weight:bold;vertical-align:top;">session_masterapp</td><td style="vertical-align:top;">:</td><td><div>Gym_membership</div></td></tr><tr><td style="font-weight:bold;vertical-align:top;">session_new</td><td style="vertical-align:top;">:</td><td><div>False</div></td></tr><tr><td style="font-weight:bold;vertical-align:top;">session_storage_type</td><td style="vertical-align:top;">:</td><td><div>file</div></td></tr><tr><td style="font-weight:bold;vertical-align:top;">status</td><td style="vertical-align:top;">:</td><td><div>200</div></td></tr><tr><td style="font-weight:bold;vertical-align:top;">view</td><td style="vertical-align:top;">:</td><td><div>default/qqq.html</div></td></tr></table></div>'
tRp256
sS'locals'
p257
(dp258
S'PY2'
p259
S'True'
p260
sS'OBJECT'
p261
S"<class 'gluon.html.OBJECT'>"
p262
sS'SQLDB'
p263
S"<class 'pydal.base.DAL'>"
p264
sg249
S"<Storage {'_formkey[users/create]': ['252586b2-6...4d480', 'a6790ab1-4c58-4bcf-8327-b73b82f468b7']}>"
p265
sS'LINK'
p266
S"<class 'gluon.html.LINK'>"
p267
sS'BR'
p268
S"<class 'gluon.html.BR'>"
p269
sS'local_import'
p270
S'<function <lambda>>'
p271
sS'OPTGROUP'
p272
S"<class 'gluon.html.OPTGROUP'>"
p273
sS'__package__'
p274
S'None'
p275
sS'PRE'
p276
S"<class 'gluon.html.PRE'>"
p277
sS'IS_INT_IN_RANGE'
p278
S"<class 'gluon.validators.IS_INT_IN_RANGE'>"
p279
sS'to_bytes'
p280
S'<function to_bytes>'
p281
sS'IS_LOWER'
p282
S"<class 'gluon.validators.IS_LOWER'>"
p283
sS'IS_STRONG'
p284
S"<class 'gluon.validators.IS_STRONG'>"
p285
sS'cache'
p286
S'<gluon.cache.Cache object>'
p287
sS'IS_IN_DB'
p288
S"<class 'gluon.validators.IS_IN_DB'>"
p289
sS'TAG'
p290
S'<gluon.html.__TAG__ object>'
p291
sS'SQLField'
p292
S"<class 'pydal.objects.Field'>"
p293
sS'BODY'
p294
S"<class 'gluon.html.BODY'>"
p295
sS'IS_DATE_IN_RANGE'
p296
S"<class 'gluon.validators.IS_DATE_IN_RANGE'>"
p297
sS'IFRAME'
p298
S"<class 'gluon.html.IFRAME'>"
p299
sS'URL'
p300
S'<function URL>'
p301
sS'__file__'
p302
S"r'C:\\Users\\Sumani\\Downloads\\web2py\\web2py\\applications\\Gym_membership\\models\\menu.py'"
p303
sS'db'
p304
S'<DAL uri="sqlite://storage.sqlite">'
p305
sS'P'
S"<class 'gluon.html.P'>"
p306
sS'TFOOT'
p307
S"<class 'gluon.html.TFOOT'>"
p308
sS'iteritems'
p309
S'<function <lambda>>'
p310
sS'XHTML'
p311
S"<class 'gluon.html.XHTML'>"
p312
sS'ON'
p313
g260
sS'OL'
p314
S"<class 'gluon.html.OL'>"
p315
sS'TEXTAREA'
p316
S"<class 'gluon.html.TEXTAREA'>"
p317
sS'MENU'
p318
S"<class 'gluon.html.MENU'>"
p319
sS'IS_IMAGE'
p320
S"<class 'gluon.validators.IS_IMAGE'>"
p321
sS'EM'
p322
S"<class 'gluon.html.EM'>"
p323
sS'CODE'
p324
S"<class 'gluon.html.CODE'>"
p325
sS'HTTP'
p326
S"<class 'gluon.http.HTTP'>"
p327
sS'HR'
p328
S"<class 'gluon.html.HR'>"
p329
sS'IS_DATETIME'
p330
S"<class 'gluon.validators.IS_DATETIME'>"
p331
sS'reduce'
p332
S'<built-in function reduce>'
p333
sS'STYLE'
p334
S"<class 'gluon.html.STYLE'>"
p335
sS'LABEL'
p336
S"<class 'gluon.html.LABEL'>"
p337
sS'CLEANUP'
p338
S"<class 'gluon.validators.CLEANUP'>"
p339
sS'SELECT'
p340
S"<class 'gluon.html.SELECT'>"
p341
sS'CENTER'
p342
S"<class 'gluon.html.CENTER'>"
p343
sS'__builtins__'
p344
S"{'ArithmeticError': <type 'exceptions.ArithmeticError'>, 'AssertionError': <type 'exceptions.AssertionError'>, 'AttributeError': <type 'exceptions.AttributeError'>, 'BaseException': <type 'exceptions.BaseException'>, 'BufferError': <type 'exceptions.BufferError'>, 'BytesWarning': <type 'exceptions.BytesWarning'>, 'DeprecationWarning': <type 'exceptions.DeprecationWarning'>, 'EOFError': <type 'exceptions.EOFError'>, 'Ellipsis': Ellipsis, 'EnvironmentError': <type 'exceptions.EnvironmentError'>, ...}"
p345
sS'HTML'
p346
S"<class 'gluon.html.HTML'>"
p347
sS'SQLFORM'
p348
S"<class 'gluon.sqlhtml.SQLFORM'>"
p349
sS'LOAD'
p350
S'<function LOAD>'
p351
sS'redirect'
p352
S'<function redirect>'
p353
sS'FIELDSET'
p354
S"<class 'gluon.html.FIELDSET'>"
p355
sS'IS_EQUAL_TO'
p356
S"<class 'gluon.validators.IS_EQUAL_TO'>"
p357
sS'embed64'
p358
S'<function embed64>'
p359
sS'IS_LIST_OF'
p360
S"<class 'gluon.validators.IS_LIST_OF'>"
p361
sS'INPUT'
p362
S"<class 'gluon.html.INPUT'>"
p363
sS'EMBED'
p364
S"<class 'gluon.html.EMBED'>"
p365
sS'configuration'
p366
S"{'host': {'names': 'localhost:*, 127.0.0.1:*, *:...': 'sqlite://storage.sqlite', 'pool_size': '10'}}"
p367
sS'H2'
p368
S"<class 'gluon.html.H2'>"
p369
sS'H3'
p370
S"<class 'gluon.html.H3'>"
p371
sS'AppConfig'
p372
S'<function AppConfig>'
p373
sS'H1'
p374
S"<class 'gluon.html.H1'>"
p375
sS'H6'
p376
S"<class 'gluon.html.H6'>"
p377
sS'H4'
p378
S"<class 'gluon.html.H4'>"
p379
sS'H5'
p380
S"<class 'gluon.html.H5'>"
p381
sS'UL'
p382
S"<class 'gluon.html.UL'>"
p383
sS'IS_UPPER'
p384
S"<class 'gluon.validators.IS_UPPER'>"
p385
sS'xmlescape'
p386
S'<function xmlescape>'
p387
sS'IS_TIME'
p388
S"<class 'gluon.validators.IS_TIME'>"
p389
sS'OPTION'
p390
S"<class 'gluon.html.OPTION'>"
p391
sS'TITLE'
p392
S"<class 'gluon.html.TITLE'>"
p393
sS'CRYPT'
p394
S"<class 'gluon.validators.CRYPT'>"
p395
sS'IS_EMPTY_OR'
p396
S"<class 'gluon.validators.IS_EMPTY_OR'>"
p397
sS'MARKMIN'
p398
S"<class 'gluon.html.MARKMIN'>"
p399
sS'__name__'
p400
S"'__restricted__'"
p401
sS'STRONG'
p402
S"<class 'gluon.html.STRONG'>"
p403
sS'COL'
p404
S"<class 'gluon.html.COL'>"
p405
sS'SCRIPT'
p406
S"<class 'gluon.html.SCRIPT'>"
p407
sS'TABLE'
p408
S"<class 'gluon.html.TABLE'>"
p409
sS'IS_IPV4'
p410
S"<class 'gluon.validators.IS_IPV4'>"
p411
sS'IS_LENGTH'
p412
S"<class 'gluon.validators.IS_LENGTH'>"
p413
sS'IS_IPV6'
p414
S"<class 'gluon.validators.IS_IPV6'>"
p415
sS'XML'
p416
S"<class 'gluon.html.XML'>"
p417
sS'B'
S"<class 'gluon.html.B'>"
p418
sS'IMG'
p419
S"<class 'gluon.html.IMG'>"
p420
sS'SQLTABLE'
p421
S"<class 'gluon.sqlhtml.SQLTABLE'>"
p422
sS'IS_MATCH'
p423
S"<class 'gluon.validators.IS_MATCH'>"
p424
sS'IS_ALPHANUMERIC'
p425
S"<class 'gluon.validators.IS_ALPHANUMERIC'>"
p426
sS'_app'
p427
S"'Gym_membership'"
p428
sS'SPAN'
p429
S"<class 'gluon.html.SPAN'>"
p430
sS'IS_JSON'
p431
S"<class 'gluon.validators.IS_JSON'>"
p432
sS'IS_IPADDRESS'
p433
S"<class 'gluon.validators.IS_IPADDRESS'>"
p434
sS'IS_SLUG'
p435
S"<class 'gluon.validators.IS_SLUG'>"
p436
sS'BEAUTIFY'
p437
S"<class 'gluon.html.BEAUTIFY'>"
p438
sS'META'
p439
S"<class 'gluon.html.META'>"
p440
sS'BUTTON'
p441
S"<class 'gluon.html.BUTTON'>"
p442
sS'IS_DATE'
p443
S"<class 'gluon.validators.IS_DATE'>"
p444
sS'IS_EMAIL'
p445
S"<class 'gluon.validators.IS_EMAIL'>"
p446
sS'IS_NOT_EMPTY'
p447
S"<class 'gluon.validators.IS_NOT_EMPTY'>"
p448
sS'xrange'
p449
S"<type 'xrange'>"
p450
sS'TBODY'
p451
S"<class 'gluon.html.TBODY'>"
p452
sS'CAT'
p453
S"<class 'gluon.html.CAT'>"
p454
sS'Field'
p455
S"<class 'pydal.objects.Field'>"
p456
sS'IS_LIST_OF_EMAILS'
p457
S"<class 'gluon.validators.IS_LIST_OF_EMAILS'>"
p458
sg56
S"<Storage {'_vars': None, 'function': 'qqq', 'coo...web2py\\\\web2py\\\\applications\\\\Gym_membership\\\\'}>"
p459
sS'DIV'
p460
S"<class 'gluon.html.DIV'>"
p461
sS'LEGEND'
p462
S"<class 'gluon.html.LEGEND'>"
p463
sS'to_native'
p464
S'<function to_native>'
p465
sS'COLGROUP'
p466
S"<class 'gluon.html.COLGROUP'>"
p467
sS'DAL'
p468
S"<class 'pydal.base.DAL'>"
p469
sS'ASSIGNJS'
p470
S'<function ASSIGNJS>'
p471
sS'TR'
p472
S"<class 'gluon.html.TR'>"
p473
sS'LI'
p474
S"<class 'gluon.html.LI'>"
p475
sS'TH'
p476
S"<class 'gluon.html.TH'>"
p477
sS'TD'
p478
S"<class 'gluon.html.TD'>"
p479
sS'IS_URL'
p480
S"<class 'gluon.validators.IS_URL'>"
p481
sS'A'
S"<class 'gluon.html.A'>"
p482
sS'HEAD'
p483
S"<class 'gluon.html.HEAD'>"
p484
sS'IS_DATETIME_IN_RANGE'
p485
S"<class 'gluon.validators.IS_DATETIME_IN_RANGE'>"
p486
sS'FORM'
p487
S"<class 'gluon.html.FORM'>"
p488
sS'I'
S"<class 'gluon.html.I'>"
p489
sS'IS_NOT_IN_DB'
p490
S"<class 'gluon.validators.IS_NOT_IN_DB'>"
p491
sg255
S"<Storage {'body': <cStringIO.StringO object at 0...bda> at 0x047D3130>, 'view': 'default/qqq.html'}>"
p492
sS'THEAD'
p493
S"<class 'gluon.html.THEAD'>"
p494
sS'ANY_OF'
p495
S"<class 'gluon.validators.ANY_OF'>"
p496
sS'IS_NULL_OR'
p497
S"<class 'gluon.validators.IS_EMPTY_OR'>"
p498
sS'IS_FLOAT_IN_RANGE'
p499
S"<class 'gluon.validators.IS_FLOAT_IN_RANGE'>"
p500
sS'IS_EXPR'
p501
S"<class 'gluon.validators.IS_EXPR'>"
p502
sS'T'
S'<gluon.languages.translator object>'
p503
sS'IS_IN_SET'
p504
S"<class 'gluon.validators.IS_IN_SET'>"
p505
sS'IS_UPLOAD_FILENAME'
p506
S"<class 'gluon.validators.IS_UPLOAD_FILENAME'>"
p507
sS'TT'
p508
S"<class 'gluon.html.TT'>"
p509
sS'IS_DECIMAL_IN_RANGE'
p510
S"<class 'gluon.validators.IS_DECIMAL_IN_RANGE'>"
p511
sssS'traceback'
p512
S'Traceback (most recent call last):\n  File "C:\\Users\\Sumani\\Downloads\\web2py\\web2py\\gluon\\main.py", line 445, in wsgibase\n    serve_controller(request, response, session)\n  File "C:\\Users\\Sumani\\Downloads\\web2py\\web2py\\gluon\\main.py", line 184, in serve_controller\n    page = run_view_in(response._view_environment)\n  File "C:\\Users\\Sumani\\Downloads\\web2py\\web2py\\gluon\\compileapp.py", line 724, in run_view_in\n    context=environment)\n  File "C:\\Users\\Sumani\\Downloads\\web2py\\web2py\\gluon\\template.py", line 792, in parse_template\n    return str(TemplateParser(text, context=context, path=path, lexers=lexers, delimiters=delimiters))\n  File "C:\\Users\\Sumani\\Downloads\\web2py\\web2py\\gluon\\template.py", line 314, in __init__\n    self.parse(text)\n  File "C:\\Users\\Sumani\\Downloads\\web2py\\web2py\\gluon\\template.py", line 760, in parse\n    self.extend(extend)\n  File "C:\\Users\\Sumani\\Downloads\\web2py\\web2py\\gluon\\template.py", line 474, in extend\n    text = self._get_file_text(filename) or \'%sinclude%s\' % tuple(self.delimiters)\n  File "C:\\Users\\Sumani\\Downloads\\web2py\\web2py\\gluon\\template.py", line 434, in _get_file_text\n    filename = eval(filename, context)\n  File "<string>", line 1, in <module>\nNameError: name \'my_layout\' is not defined\n'
p513
s.